target datalayout = "e-m:e-p270:32:32-p271:32:32-p272:64:64-i64:64-i128:128-f80:128-n8:16:32:64-S128"
target triple = "x86_64-pc-linux-gnu"

%class.LibRaw = type { ptr, %struct.libraw_data_t, ptr, %struct.libraw_internal_data_t, [2048 x %struct.decode], ptr, ptr, [10 x %struct.tiff_ifd_t], %class.libraw_memmgr, %struct.libraw_callbacks_t, { i64, i64 }, { i64, i64 }, { i64, i64 }, ptr, ptr, ptr, i64, ptr, ptr, ptr, ptr }
%struct.libraw_data_t = type { ptr, %struct.libraw_image_sizes_t, %struct.libraw_iparams_t, %struct.libraw_lensinfo_t, %struct.libraw_makernotes_t, %struct.libraw_shootinginfo_t, %struct.libraw_output_params_t, %struct.libraw_raw_unpack_params_t, i32, i32, %struct.libraw_colordata_t, %struct.libraw_imgother_t, %struct.libraw_thumbnail_t, %struct.libraw_thumbnail_list_t, %struct.libraw_rawdata_t, ptr }
%struct.libraw_image_sizes_t = type { i16, i16, i16, i16, i16, i16, i16, i16, i32, double, i32, [8 x [4 x i32]], i16, [2 x %struct.libraw_raw_inset_crop_t] }
%struct.libraw_raw_inset_crop_t = type { i16, i16, i16, i16 }
%struct.libraw_iparams_t = type { [4 x i8], [64 x i8], [64 x i8], [64 x i8], [64 x i8], [64 x i8], i32, i32, i32, i32, i32, i32, [6 x [6 x i8]], [6 x [6 x i8]], [5 x i8], i32, ptr }
%struct.libraw_lensinfo_t = type { float, float, float, float, float, [128 x i8], [128 x i8], [128 x i8], [128 x i8], i16, %struct.libraw_nikonlens_t, %struct.libraw_dnglens_t, %struct.libraw_makernotes_lens_t }
%struct.libraw_nikonlens_t = type { float, i8, i8, i8, i8 }
%struct.libraw_dnglens_t = type { float, float, float, float }
%struct.libraw_makernotes_lens_t = type { i64, [128 x i8], i16, i16, i64, i16, i16, [64 x i8], i16, [16 x i8], [16 x i8], float, float, float, float, float, float, float, float, float, float, float, float, float, float, float, i64, [128 x i8], i64, [128 x i8], i64, [128 x i8], i16, float }
%struct.libraw_makernotes_t = type { %struct.libraw_canon_makernotes_t, %struct.libraw_nikon_makernotes_t, %struct.libraw_hasselblad_makernotes_t, %struct.libraw_fuji_info_t, %struct.libraw_olympus_makernotes_t, %struct.libraw_sony_info_t, %struct.libraw_kodak_makernotes_t, %struct.libraw_panasonic_makernotes_t, %struct.libraw_pentax_makernotes_t, %struct.libraw_p1_makernotes_t, %struct.libraw_ricoh_makernotes_t, %struct.libraw_samsung_makernotes_t, %struct.libraw_metadata_common_t }
%struct.libraw_canon_makernotes_t = type { i32, i32, i32, i32, [4 x i32], i32, [4 x i32], i16, i16, i8, i16, i16, i16, i16, i16, i16, i16, i16, i16, i16, i16, i16, i16, i32, float, i16, i16, i16, i32, i16, i32, i32, i16, i32, %struct.libraw_area_t, %struct.libraw_area_t, %struct.libraw_area_t, %struct.libraw_area_t, %struct.libraw_area_t, [2 x i16] }
%struct.libraw_area_t = type { i16, i16, i16, i16 }
%struct.libraw_nikon_makernotes_t = type { double, i16, i16, [7 x i8], i8, i8, [13 x i8], [20 x i8], [4 x i8], [4 x i8], [4 x i8], i8, i8, i8, i8, i8, [2 x i8], i8, i8, i8, i8, i8, [4 x i8], [4 x i8], i8, i16, i32, i32, i32, i32, [4 x double], i8, i8, i8, i32, i32, i32, i8, [4 x i16], i16, %struct.libraw_sensor_highspeed_crop_t, i16, i16, i16, i32, [20 x i8], [20 x i8], i32, i16, double, double, double }
%struct.libraw_sensor_highspeed_crop_t = type { i16, i16, i16, i16 }
%struct.libraw_hasselblad_makernotes_t = type { i32, double, [8 x i8], [64 x i8], [64 x i8], i32, i32, i32, i32, [32 x i8], [64 x i8], i32, [2 x i32], [2 x i32], [4 x [3 x double]] }
%struct.libraw_fuji_info_t = type { float, i16, i16, i16, i16, i16, i16, i16, i16, [33 x i8], [33 x i8], float, i16, i16, [2 x i16], i16, i32, i32, i16, [3 x i16], i16, i16, i16, i16, i16, i32, i16, [13 x i8], [5 x i8], [5 x i8], i32, i16, i32, i16, [9 x i16], [32 x i32], i32, i32, i32, [2 x float], i32 }
%struct.libraw_olympus_makernotes_t = type { [6 x i8], i16, [2 x i32], [5 x i16], i16, [2 x i16], i16, i16, [64 x i32], [5 x double], i16, i8, [3 x i16], [3 x i32], i16, i16, i16, i16, double, [4 x i16], [2 x i32], i8, i32, i16, i16 }
%struct.libraw_sony_info_t = type { i16, i8, i8, i32, i8, i32, i8, i8, i16, [2 x i16], i8, i8, i16, [10 x i8], i8, i8, [4 x i16], i16, i8, i8, i8, i16, i32, i16, [2 x i16], i16, i16, i16, i16, i16, i16, i16, i32, float, i16, i32, i32, i16, [20 x i8], i32, i16, i32, i8, i8, i16, i16, i16, i16, i16, i16, i16, i16, i16, i32, i16, [16 x i8], float }
%struct.libraw_kodak_makernotes_t = type { i16, i16, i16, i16, i16, i16, [3 x [3 x float]], [3 x [3 x float]], [3 x [3 x float]], [3 x [3 x float]], [3 x [3 x float]], [3 x [3 x float]], i16, i16, i16, i16, float, float }
%struct.libraw_panasonic_makernotes_t = type { i16, i16, [8 x float], i32, float, [3 x i32], i16, i16, i32, i32 }
%struct.libraw_pentax_makernotes_t = type { [4 x i8], [2 x i16], [2 x i16], i16, i32, i32, i16, i16, i8, i8, i16 }
%struct.libraw_p1_makernotes_t = type { [64 x i8], [64 x i8], [256 x i8], [64 x i8] }
%struct.libraw_ricoh_makernotes_t = type { i16, [2 x i32], [2 x i32], i16, i32, i32, i32, i32, i16, i16, i16, i16, i16, i16, double, double }
%struct.libraw_samsung_makernotes_t = type { [4 x i32], [4 x i32], [2 x i32], [11 x i32], double, i32, [32 x i8] }
%struct.libraw_metadata_common_t = type { float, float, float, float, float, float, float, float, float, float, float, float, float, float, float, float, i16, [128 x i8], float, [4 x %struct.libraw_afinfo_item_t], i32 }
%struct.libraw_afinfo_item_t = type { i32, i16, i32, i32, ptr }
%struct.libraw_shootinginfo_t = type { i16, i16, i16, i16, i16, i16, i16, [64 x i8], [64 x i8] }
%struct.libraw_output_params_t = type { [4 x i32], [4 x i32], [4 x double], [6 x double], [4 x float], float, float, i32, i32, i32, i32, i32, i32, i32, ptr, ptr, ptr, ptr, i32, i32, i32, i32, i32, i32, [4 x i32], i32, i32, float, float, i32, i32, i32, i32, i32, i32, i32, i32, float, float, i32, i32 }
%struct.libraw_raw_unpack_params_t = type { i32, i32, i32, i32, i32, i32, i32, float, [5 x i8], ptr }
%struct.libraw_colordata_t = type { [65536 x i16], [4104 x i32], i32, i32, i32, [4 x i64], float, float, [8 x [8 x i16]], [4 x float], [4 x float], [3 x [4 x float]], [3 x [4 x float]], [3 x [4 x float]], [4 x [3 x float]], %struct.ph1_t, float, float, [64 x i8], [64 x i8], [64 x i8], [64 x i8], [17 x i8], [64 x i8], ptr, i32, [8 x i32], [2 x %struct.libraw_dng_color_t], %struct.libraw_dng_levels_t, [256 x [4 x i32]], [64 x [5 x float]], i32, [2 x %struct.libraw_P1_color_t], i32, i32 }
%struct.ph1_t = type { i32, i32, i32, i32, i32, i32, i32, i32, float }
%struct.libraw_dng_color_t = type { i32, i16, [4 x [4 x float]], [4 x [3 x float]], [3 x [4 x float]] }
%struct.libraw_dng_levels_t = type { i32, [4104 x i32], i32, [4104 x float], float, [4 x i32], [4 x i16], [4 x float], i32, [4 x float], [4 x float], float, float }
%struct.libraw_P1_color_t = type { [9 x float] }
%struct.libraw_imgother_t = type { float, float, float, float, i64, i32, [32 x i32], %struct.libraw_gps_info_t, [512 x i8], [64 x i8], [4 x float] }
%struct.libraw_gps_info_t = type { [3 x float], [3 x float], [3 x float], float, i8, i8, i8, i8, i8 }
%struct.libraw_thumbnail_t = type { i32, i16, i16, i32, i32, ptr }
%struct.libraw_thumbnail_list_t = type { i32, [8 x %struct.libraw_thumbnail_item_t] }
%struct.libraw_thumbnail_item_t = type { i32, i16, i16, i16, i32, i32, i64 }
%struct.libraw_rawdata_t = type { ptr, ptr, ptr, ptr, ptr, ptr, ptr, ptr, ptr, %struct.libraw_iparams_t, %struct.libraw_image_sizes_t, %struct.libraw_internal_output_params_t, %struct.libraw_colordata_t }
%struct.libraw_internal_output_params_t = type { i32, i32, i32, i16, i16 }
%struct.libraw_internal_data_t = type { %struct.internal_data_t, %struct.libraw_internal_output_params_t, %struct.output_data_t, %struct.identify_data_t, %struct.unpacker_data_t }
%struct.internal_data_t = type { ptr, ptr, i32, ptr, i64, i64, [4 x i32] }
%struct.output_data_t = type { ptr, ptr }
%struct.identify_data_t = type { i32, i64, i64, i32, i32, i32 }
%struct.unpacker_data_t = type { i16, [4 x i16], [3 x i16], i32, i64, i64, i64, i64, i64, i64, i32, i32, i32, i32, i32, i32, i32, i32, i32, i32, i32, i32, i32, i32, i32, i32, i32, i64, i32, i32, i32, i32, i32, i32, i32, i32, i32, %struct.pana8_tags_t, [16 x %struct.crx_data_header_t], i32, i32, i16, i16, i32, i32, i32, i32, i32, i32, i32, [20 x i32], i16 }
%struct.pana8_tags_t = type { [6 x i32], [6 x i16], i16, [4 x i16], [17 x i16], [17 x i16], [17 x i16], i16, i16, [5 x i64], [5 x i16], [5 x i32], [5 x i16], [5 x i16] }
%struct.crx_data_header_t = type { i32, i32, i32, i32, i32, i32, i32, i32, i32, i32, i32, i32, i32, i32, i32, i64, i32, ptr, i32, i32, i32, ptr, i32, ptr }
%struct.decode = type { [2 x ptr], i32 }
%struct.tiff_ifd_t = type { i32, i32, i32, i32, i32, i32, i32, i32, i32, i32, i32, i32, i32, i32, i32, ptr, i32, ptr, i32, i32, i32, i32, i32, i32, i32, float, i64, i64, i32, [2 x %struct.libraw_dng_color_t], %struct.libraw_dng_levels_t, i32 }
%class.libraw_memmgr = type <{ ptr, i32, [4 x i8] }>
%struct.libraw_callbacks_t = type { ptr, ptr, ptr, ptr, ptr, ptr, ptr, ptr, ptr, ptr, ptr, ptr, ptr, ptr, ptr, ptr, ptr }

@__const._ZN6LibRaw20parse_fuji_thumbnailEi.xmpmarker = private unnamed_addr constant [29 x i8] c"http://ns.adobe.com/xap/1.0/\00", align 16

; Function Attrs: mustprogress uwtable
define void @_ZN6LibRaw20parse_fuji_thumbnailEi(ptr noundef nonnull align 8 dereferenceable(767680) %0, i32 noundef %1) #0 align 2 {
  %3 = alloca ptr, align 8
  %4 = alloca i32, align 4
  %5 = alloca [29 x i8], align 16
  %6 = alloca [30 x i8], align 16
  %7 = alloca i32, align 4
  %8 = alloca i64, align 8
  %9 = alloca i16, align 2
  %10 = alloca i16, align 2
  %11 = alloca i32, align 4
  %12 = alloca i64, align 8
  %13 = alloca i32, align 4
  %14 = alloca i32, align 4
  store ptr %0, ptr %3, align 8, !tbaa !6
  store i32 %1, ptr %4, align 4, !tbaa !13
  %15 = load ptr, ptr %3, align 8
  call void @llvm.lifetime.start.p0(i64 29, ptr %5) #14
  call void @llvm.memcpy.p0.p0.i64(ptr align 16 %5, ptr align 16 @__const._ZN6LibRaw20parse_fuji_thumbnailEi.xmpmarker, i64 29, i1 false)
  call void @llvm.lifetime.start.p0(i64 30, ptr %6) #14
  call void @llvm.lifetime.start.p0(i64 4, ptr %7) #14
  store i32 29, ptr %7, align 4, !tbaa !13
  call void @llvm.lifetime.start.p0(i64 8, ptr %8) #14
  %16 = getelementptr inbounds nuw %class.LibRaw, ptr %15, i32 0, i32 3
  %17 = getelementptr inbounds nuw %struct.libraw_internal_data_t, ptr %16, i32 0, i32 0
  %18 = getelementptr inbounds nuw %struct.internal_data_t, ptr %17, i32 0, i32 0
  %19 = load ptr, ptr %18, align 8, !tbaa !80
  %20 = load ptr, ptr %19, align 8, !tbaa !81
  %21 = getelementptr inbounds ptr, ptr %20, i64 5
  %22 = load ptr, ptr %21, align 8
  %23 = call noundef i64 %22(ptr noundef nonnull align 8 dereferenceable(8) %19)
  store i64 %23, ptr %8, align 8, !tbaa !165
  %24 = getelementptr inbounds nuw %class.LibRaw, ptr %15, i32 0, i32 3
  %25 = getelementptr inbounds nuw %struct.libraw_internal_data_t, ptr %24, i32 0, i32 0
  %26 = getelementptr inbounds nuw %struct.internal_data_t, ptr %25, i32 0, i32 0
  %27 = load ptr, ptr %26, align 8, !tbaa !80
  %28 = load i32, ptr %4, align 4, !tbaa !13
  %29 = sext i32 %28 to i64
  %30 = load ptr, ptr %27, align 8, !tbaa !81
  %31 = getelementptr inbounds ptr, ptr %30, i64 4
  %32 = load ptr, ptr %31, align 8
  %33 = call noundef i32 %32(ptr noundef nonnull align 8 dereferenceable(8) %27, i64 noundef %29, i32 noundef 0)
  call void @llvm.lifetime.start.p0(i64 2, ptr %9) #14
  %34 = getelementptr inbounds nuw %class.LibRaw, ptr %15, i32 0, i32 3
  %35 = getelementptr inbounds nuw %struct.libraw_internal_data_t, ptr %34, i32 0, i32 4
  %36 = getelementptr inbounds nuw %struct.unpacker_data_t, ptr %35, i32 0, i32 0
  %37 = load i16, ptr %36, align 8, !tbaa !79
  store i16 %37, ptr %9, align 2, !tbaa !15
  %38 = getelementptr inbounds nuw %class.LibRaw, ptr %15, i32 0, i32 3
  %39 = getelementptr inbounds nuw %struct.libraw_internal_data_t, ptr %38, i32 0, i32 4
  %40 = getelementptr inbounds nuw %struct.unpacker_data_t, ptr %39, i32 0, i32 0
  store i16 19018, ptr %40, align 8, !tbaa !79
  %41 = call noundef zeroext i16 @_ZN6LibRaw4get2Ev(ptr noundef nonnull align 8 dereferenceable(767680) %15)
  %42 = zext i16 %41 to i32
  %43 = icmp eq i32 %42, 65496
  br i1 %43, label %44, label %153

44:                                               ; preds = %2
  br label %45

45:                                               ; preds = %151, %44
  br label %46

46:                                               ; preds = %45
  call void @llvm.lifetime.start.p0(i64 2, ptr %10) #14
  %47 = call noundef zeroext i16 @_ZN6LibRaw4get2Ev(ptr noundef nonnull align 8 dereferenceable(767680) %15)
  store i16 %47, ptr %10, align 2, !tbaa !15
  %48 = load i16, ptr %10, align 2, !tbaa !15
  %49 = zext i16 %48 to i32
  %50 = icmp ne i32 %49, 65505
  br i1 %50, label %51, label %56

51:                                               ; preds = %46
  %52 = load i16, ptr %10, align 2, !tbaa !15
  %53 = zext i16 %52 to i32
  %54 = icmp ne i32 %53, 65506
  br i1 %54, label %55, label %56

55:                                               ; preds = %51
  store i32 3, ptr %11, align 4
  br label %149

56:                                               ; preds = %51, %46
  call void @llvm.lifetime.start.p0(i64 8, ptr %12) #14
  %57 = getelementptr inbounds nuw %class.LibRaw, ptr %15, i32 0, i32 3
  %58 = getelementptr inbounds nuw %struct.libraw_internal_data_t, ptr %57, i32 0, i32 0
  %59 = getelementptr inbounds nuw %struct.internal_data_t, ptr %58, i32 0, i32 0
  %60 = load ptr, ptr %59, align 8, !tbaa !80
  %61 = load ptr, ptr %60, align 8, !tbaa !81
  %62 = getelementptr inbounds ptr, ptr %61, i64 5
  %63 = load ptr, ptr %62, align 8
  %64 = call noundef i64 %63(ptr noundef nonnull align 8 dereferenceable(8) %60)
  store i64 %64, ptr %12, align 8, !tbaa !165
  call void @llvm.lifetime.start.p0(i64 4, ptr %13) #14
  %65 = call noundef zeroext i16 @_ZN6LibRaw4get2Ev(ptr noundef nonnull align 8 dereferenceable(767680) %15)
  %66 = zext i16 %65 to i32
  store i32 %66, ptr %13, align 4, !tbaa !13
  %67 = load i32, ptr %13, align 4, !tbaa !13
  %68 = load i32, ptr %7, align 4, !tbaa !13
  %69 = add nsw i32 %68, 2
  %70 = icmp sgt i32 %67, %69
  br i1 %70, label %71, label %135

71:                                               ; preds = %56
  %72 = getelementptr inbounds nuw %class.LibRaw, ptr %15, i32 0, i32 3
  %73 = getelementptr inbounds nuw %struct.libraw_internal_data_t, ptr %72, i32 0, i32 0
  %74 = getelementptr inbounds nuw %struct.internal_data_t, ptr %73, i32 0, i32 0
  %75 = load ptr, ptr %74, align 8, !tbaa !80
  %76 = getelementptr inbounds [30 x i8], ptr %6, i64 0, i64 0
  %77 = load i32, ptr %7, align 4, !tbaa !13
  %78 = sext i32 %77 to i64
  %79 = load ptr, ptr %75, align 8, !tbaa !81
  %80 = getelementptr inbounds ptr, ptr %79, i64 3
  %81 = load ptr, ptr %80, align 8
  %82 = call noundef i32 %81(ptr noundef nonnull align 8 dereferenceable(8) %75, ptr noundef %76, i64 noundef 1, i64 noundef %78)
  %83 = load i32, ptr %7, align 4, !tbaa !13
  %84 = icmp eq i32 %82, %83
  br i1 %84, label %85, label %134

85:                                               ; preds = %71
  %86 = getelementptr inbounds [30 x i8], ptr %6, i64 0, i64 0
  %87 = getelementptr inbounds [29 x i8], ptr %5, i64 0, i64 0
  %88 = load i32, ptr %7, align 4, !tbaa !13
  %89 = sext i32 %88 to i64
  %90 = call i32 @memcmp(ptr noundef %86, ptr noundef %87, i64 noundef %89) #15
  %91 = icmp ne i32 %90, 0
  br i1 %91, label %134, label %92

92:                                               ; preds = %85
  %93 = load i32, ptr %13, align 4, !tbaa !13
  %94 = load i32, ptr %7, align 4, !tbaa !13
  %95 = sub nsw i32 %93, %94
  %96 = sub nsw i32 %95, 2
  %97 = getelementptr inbounds nuw %class.LibRaw, ptr %15, i32 0, i32 1
  %98 = getelementptr inbounds nuw %struct.libraw_data_t, ptr %97, i32 0, i32 2
  %99 = getelementptr inbounds nuw %struct.libraw_iparams_t, ptr %98, i32 0, i32 15
  store i32 %96, ptr %99, align 4, !tbaa !166
  %100 = getelementptr inbounds nuw %class.LibRaw, ptr %15, i32 0, i32 1
  %101 = getelementptr inbounds nuw %struct.libraw_data_t, ptr %100, i32 0, i32 2
  %102 = getelementptr inbounds nuw %struct.libraw_iparams_t, ptr %101, i32 0, i32 15
  %103 = load i32, ptr %102, align 4, !tbaa !166
  %104 = add i32 %103, 1
  %105 = zext i32 %104 to i64
  %106 = call noundef ptr @_ZN6LibRaw6callocEmm(ptr noundef nonnull align 8 dereferenceable(767680) %15, i64 noundef %105, i64 noundef 1)
  %107 = getelementptr inbounds nuw %class.LibRaw, ptr %15, i32 0, i32 1
  %108 = getelementptr inbounds nuw %struct.libraw_data_t, ptr %107, i32 0, i32 2
  %109 = getelementptr inbounds nuw %struct.libraw_iparams_t, ptr %108, i32 0, i32 16
  store ptr %106, ptr %109, align 8, !tbaa !167
  call void @llvm.lifetime.start.p0(i64 4, ptr %14) #14
  %110 = getelementptr inbounds nuw %class.LibRaw, ptr %15, i32 0, i32 3
  %111 = getelementptr inbounds nuw %struct.libraw_internal_data_t, ptr %110, i32 0, i32 0
  %112 = getelementptr inbounds nuw %struct.internal_data_t, ptr %111, i32 0, i32 0
  %113 = load ptr, ptr %112, align 8, !tbaa !80
  %114 = getelementptr inbounds nuw %class.LibRaw, ptr %15, i32 0, i32 1
  %115 = getelementptr inbounds nuw %struct.libraw_data_t, ptr %114, i32 0, i32 2
  %116 = getelementptr inbounds nuw %struct.libraw_iparams_t, ptr %115, i32 0, i32 16
  %117 = load ptr, ptr %116, align 8, !tbaa !167
  %118 = getelementptr inbounds nuw %class.LibRaw, ptr %15, i32 0, i32 1
  %119 = getelementptr inbounds nuw %struct.libraw_data_t, ptr %118, i32 0, i32 2
  %120 = getelementptr inbounds nuw %struct.libraw_iparams_t, ptr %119, i32 0, i32 15
  %121 = load i32, ptr %120, align 4, !tbaa !166
  %122 = zext i32 %121 to i64
  %123 = load ptr, ptr %113, align 8, !tbaa !81
  %124 = getelementptr inbounds ptr, ptr %123, i64 3
  %125 = load ptr, ptr %124, align 8
  %126 = call noundef i32 %125(ptr noundef nonnull align 8 dereferenceable(8) %113, ptr noundef %117, i64 noundef 1, i64 noundef %122)
  store i32 %126, ptr %14, align 4, !tbaa !13
  %127 = getelementptr inbounds nuw %class.LibRaw, ptr %15, i32 0, i32 1
  %128 = getelementptr inbounds nuw %struct.libraw_data_t, ptr %127, i32 0, i32 2
  %129 = getelementptr inbounds nuw %struct.libraw_iparams_t, ptr %128, i32 0, i32 16
  %130 = load ptr, ptr %129, align 8, !tbaa !167
  %131 = load i32, ptr %14, align 4, !tbaa !13
  %132 = zext i32 %131 to i64
  %133 = getelementptr inbounds nuw i8, ptr %130, i64 %132
  store i8 0, ptr %133, align 1, !tbaa !83
  store i32 3, ptr %11, align 4
  call void @llvm.lifetime.end.p0(i64 4, ptr %14) #14
  br label %148

134:                                              ; preds = %85, %71
  br label %135

135:                                              ; preds = %134, %56
  %136 = getelementptr inbounds nuw %class.LibRaw, ptr %15, i32 0, i32 3
  %137 = getelementptr inbounds nuw %struct.libraw_internal_data_t, ptr %136, i32 0, i32 0
  %138 = getelementptr inbounds nuw %struct.internal_data_t, ptr %137, i32 0, i32 0
  %139 = load ptr, ptr %138, align 8, !tbaa !80
  %140 = load i64, ptr %12, align 8, !tbaa !165
  %141 = load i32, ptr %13, align 4, !tbaa !13
  %142 = sext i32 %141 to i64
  %143 = add nsw i64 %140, %142
  %144 = load ptr, ptr %139, align 8, !tbaa !81
  %145 = getelementptr inbounds ptr, ptr %144, i64 4
  %146 = load ptr, ptr %145, align 8
  %147 = call noundef i32 %146(ptr noundef nonnull align 8 dereferenceable(8) %139, i64 noundef %143, i32 noundef 0)
  store i32 0, ptr %11, align 4
  br label %148

148:                                              ; preds = %135, %92
  call void @llvm.lifetime.end.p0(i64 4, ptr %13) #14
  call void @llvm.lifetime.end.p0(i64 8, ptr %12) #14
  br label %149

149:                                              ; preds = %148, %55
  call void @llvm.lifetime.end.p0(i64 2, ptr %10) #14
  %150 = load i32, ptr %11, align 4
  switch i32 %150, label %167 [
    i32 0, label %151
    i32 3, label %152
  ]

151:                                              ; preds = %149
  br label %45, !llvm.loop !168

152:                                              ; preds = %149
  br label %153

153:                                              ; preds = %152, %2
  %154 = load i16, ptr %9, align 2, !tbaa !15
  %155 = getelementptr inbounds nuw %class.LibRaw, ptr %15, i32 0, i32 3
  %156 = getelementptr inbounds nuw %struct.libraw_internal_data_t, ptr %155, i32 0, i32 4
  %157 = getelementptr inbounds nuw %struct.unpacker_data_t, ptr %156, i32 0, i32 0
  store i16 %154, ptr %157, align 8, !tbaa !79
  %158 = getelementptr inbounds nuw %class.LibRaw, ptr %15, i32 0, i32 3
  %159 = getelementptr inbounds nuw %struct.libraw_internal_data_t, ptr %158, i32 0, i32 0
  %160 = getelementptr inbounds nuw %struct.internal_data_t, ptr %159, i32 0, i32 0
  %161 = load ptr, ptr %160, align 8, !tbaa !80
  %162 = load i64, ptr %8, align 8, !tbaa !165
  %163 = load ptr, ptr %161, align 8, !tbaa !81
  %164 = getelementptr inbounds ptr, ptr %163, i64 4
  %165 = load ptr, ptr %164, align 8
  %166 = call noundef i32 %165(ptr noundef nonnull align 8 dereferenceable(8) %161, i64 noundef %162, i32 noundef 0)
  call void @llvm.lifetime.end.p0(i64 2, ptr %9) #14
  call void @llvm.lifetime.end.p0(i64 8, ptr %8) #14
  call void @llvm.lifetime.end.p0(i64 4, ptr %7) #14
  call void @llvm.lifetime.end.p0(i64 30, ptr %6) #14
  call void @llvm.lifetime.end.p0(i64 29, ptr %5) #14
  ret void

167:                                              ; preds = %149
  unreachable
}