; Function Attrs: mustprogress uwtable
define void @_ZN6LibRaw20parse_fuji_thumbnailEi(ptr noundef nonnull align 8 dereferenceable(767680) %0, i32 noundef %1) local_unnamed_addr #0 align 2 {
  %3 = alloca [30 x i8], align 16
  call void @llvm.lifetime.start.p0(i64 30, ptr nonnull %3) #14
  %4 = getelementptr inbounds nuw i8, ptr %0, i64 381416
  %5 = load ptr, ptr %4, align 8, !tbaa !74
  %6 = load ptr, ptr %5, align 8, !tbaa !81
  %7 = getelementptr inbounds nuw i8, ptr %6, i64 40
  %8 = load ptr, ptr %7, align 8
  %9 = tail call noundef i64 %8(ptr noundef nonnull align 8 dereferenceable(8) %5)
  %10 = load ptr, ptr %4, align 8, !tbaa !74
  %11 = sext i32 %1 to i64
  %12 = load ptr, ptr %10, align 8, !tbaa !81
  %13 = getelementptr inbounds nuw i8, ptr %12, i64 32
  %14 = load ptr, ptr %13, align 8
  %15 = tail call noundef i32 %14(ptr noundef nonnull align 8 dereferenceable(8) %10, i64 noundef %11, i32 noundef 0)
  %16 = getelementptr inbounds nuw i8, ptr %0, i64 381552
  %17 = load i16, ptr %16, align 8, !tbaa !73
  store i16 19018, ptr %16, align 8, !tbaa !73
  %18 = tail call noundef zeroext i16 @_ZN6LibRaw4get2Ev(ptr noundef nonnull align 8 dereferenceable(767680) %0)
  %19 = icmp eq i16 %18, -40
  br i1 %19, label %.preheader, label %.thread

.preheader:                                       ; preds = %2
  %20 = tail call noundef zeroext i16 @_ZN6LibRaw4get2Ev(ptr noundef nonnull align 8 dereferenceable(767680) %0)
  %21 = add i16 %20, 29
  %or.cond22 = icmp ult i16 %21, -2
  br i1 %or.cond22, label %.thread, label %.lr.ph

.lr.ph:                                           ; preds = %.preheader, %55
  %22 = load ptr, ptr %4, align 8, !tbaa !74
  %23 = load ptr, ptr %22, align 8, !tbaa !81
  %24 = getelementptr inbounds nuw i8, ptr %23, i64 40
  %25 = load ptr, ptr %24, align 8
  %26 = call noundef i64 %25(ptr noundef nonnull align 8 dereferenceable(8) %22)
  %27 = call noundef zeroext i16 @_ZN6LibRaw4get2Ev(ptr noundef nonnull align 8 dereferenceable(767680) %0)
  %28 = icmp ugt i16 %27, 31
  br i1 %28, label %29, label %55

29:                                               ; preds = %.lr.ph
  %30 = load ptr, ptr %4, align 8, !tbaa !74
  %31 = load ptr, ptr %30, align 8, !tbaa !81
  %32 = getelementptr inbounds nuw i8, ptr %31, i64 24
  %33 = load ptr, ptr %32, align 8
  %34 = call noundef i32 %33(ptr noundef nonnull align 8 dereferenceable(8) %30, ptr noundef nonnull %3, i64 noundef 1, i64 noundef 29)
  %35 = icmp eq i32 %34, 29
  br i1 %35, label %36, label %55

36:                                               ; preds = %29
  %bcmp = call i32 @bcmp(ptr noundef nonnull dereferenceable(29) %3, ptr noundef nonnull dereferenceable(29) @__const._ZN6LibRaw20parse_fuji_thumbnailEi.xmpmarker, i64 29)
  %.not = icmp eq i32 %bcmp, 0
  br i1 %.not, label %37, label %55

37:                                               ; preds = %36
  %38 = zext i16 %27 to i32
  %39 = add nsw i32 %38, -31
  %40 = getelementptr inbounds nuw i8, ptr %0, i64 628
  store i32 %39, ptr %40, align 4, !tbaa !158
  %41 = add nsw i32 %38, -30
  %42 = zext nneg i32 %41 to i64
  %43 = call noundef ptr @_ZN6LibRaw6callocEmm(ptr noundef nonnull align 8 dereferenceable(767680) %0, i64 noundef %42, i64 noundef 1)
  %44 = getelementptr inbounds nuw i8, ptr %0, i64 632
  store ptr %43, ptr %44, align 8, !tbaa !159
  %45 = load ptr, ptr %4, align 8, !tbaa !74
  %46 = load i32, ptr %40, align 4, !tbaa !158
  %47 = zext i32 %46 to i64
  %48 = load ptr, ptr %45, align 8, !tbaa !81
  %49 = getelementptr inbounds nuw i8, ptr %48, i64 24
  %50 = load ptr, ptr %49, align 8
  %51 = call noundef i32 %50(ptr noundef nonnull align 8 dereferenceable(8) %45, ptr noundef %43, i64 noundef 1, i64 noundef %47)
  %52 = load ptr, ptr %44, align 8, !tbaa !159
  %53 = zext i32 %51 to i64
  %54 = getelementptr inbounds nuw i8, ptr %52, i64 %53
  store i8 0, ptr %54, align 1, !tbaa !83
  br label %.thread

55:                                               ; preds = %.lr.ph, %36, %29
  %56 = load ptr, ptr %4, align 8, !tbaa !74
  %57 = zext i16 %27 to i64
  %58 = add nsw i64 %26, %57
  %59 = load ptr, ptr %56, align 8, !tbaa !81
  %60 = getelementptr inbounds nuw i8, ptr %59, i64 32
  %61 = load ptr, ptr %60, align 8
  %62 = call noundef i32 %61(ptr noundef nonnull align 8 dereferenceable(8) %56, i64 noundef %58, i32 noundef 0)
  %63 = call noundef zeroext i16 @_ZN6LibRaw4get2Ev(ptr noundef nonnull align 8 dereferenceable(767680) %0)
  %64 = add i16 %63, 29
  %or.cond = icmp ult i16 %64, -2
  br i1 %or.cond, label %.thread, label %.lr.ph

.thread:                                          ; preds = %55, %.preheader, %37, %2
  store i16 %17, ptr %16, align 8, !tbaa !73
  %65 = load ptr, ptr %4, align 8, !tbaa !74
  %66 = load ptr, ptr %65, align 8, !tbaa !81
  %67 = getelementptr inbounds nuw i8, ptr %66, i64 32
  %68 = load ptr, ptr %67, align 8
  %69 = call noundef i32 %68(ptr noundef nonnull align 8 dereferenceable(8) %65, i64 noundef %9, i32 noundef 0)
  call void @llvm.lifetime.end.p0(i64 30, ptr nonnull %3) #14
  ret void
}